Certificate:
    Data:
        Version: 3 (0x2)
        Serial Number: 1 (0x1)
    Signature Algorithm: sha1WithRSAEncryption
        Issuer: C=CH, ST=Duckpond, L=Pond, O=ducksource, OU=ducksource, CN=DuckCA/name=DuckKey/emailAddress=system@duckpond.ch
        Validity
            Not Before: Sep 16 21:51:19 2012 GMT
            Not After : Sep 14 21:51:19 2022 GMT
        Subject: C=CH, ST=Duckpond, L=Pond, O=ducksource, OU=ducksource, CN=server/name=DuckKey/emailAddress=system@duckpond.ch
        Subject Public Key Info:
            Public Key Algorithm: rsaEncryption
                Public-Key: (1024 bit)
                Modulus:
                    00:98:bf:8d:d6:5f:31:ac:04:8e:f9:9d:4a:37:a9:
                    6b:c1:a8:25:6f:06:04:5f:31:a4:bb:49:db:1a:16:
                    46:56:9c:2c:24:df:76:83:48:81:6b:8b:66:85:86:
                    0e:e1:1d:11:56:b2:ea:97:0e:86:c5:25:e7:f5:ce:
                    c0:74:8f:a7:b7:92:33:3e:95:df:ad:b6:97:28:bb:
                    7f:88:e7:fa:82:20:a1:c2:ed:12:79:15:a3:52:31:
                    91:25:2d:4b:91:f3:72:42:b8:7a:a2:d0:71:4d:61:
                    4d:57:36:e7:34:47:66:53:cb:33:22:12:2c:9a:f3:
                    3a:95:f6:7a:67:0e:93:df:a3
                Exponent: 65537 (0x10001)
        X509v3 extensions:
            X509v3 Basic Constraints: 
                CA:FALSE
            Netscape Cert Type: 
                SSL Server
            Netscape Comment: 
                Easy-RSA Generated Server Certificate
            X509v3 Subject Key Identifier: 
                3A:B5:FB:1C:3E:3E:DA:33:B0:7A:06:90:63:B9:9A:7A:0C:F2:0E:EE
            X509v3 Authority Key Identifier: 
                keyid:C6:D1:DF:E9:E6:9A:B4:5C:87:36:B8:DB:B6:68:89:AC:A0:B5:DE:C3
                DirName:/C=CH/ST=Duckpond/L=Pond/O=ducksource/OU=ducksource/CN=DuckCA/name=DuckKey/emailAddress=system@duckpond.ch
                serial:FC:EF:AF:61:B3:0A:CF:95

            X509v3 Extended Key Usage: 
                TLS Web Server Authentication
            X509v3 Key Usage: 
                Digital Signature, Key Encipherment
    Signature Algorithm: sha1WithRSAEncryption
         2d:a0:a0:c3:b0:43:7f:54:47:78:53:9e:f0:07:15:10:4e:f4:
         1a:94:e6:6f:b9:fe:57:81:6d:c3:0c:6d:45:15:d4:3b:48:f4:
         60:8d:9b:dc:a2:01:88:06:15:d7:9c:35:a9:03:46:25:30:36:
         25:67:26:6b:8a:e1:62:c5:54:69:70:e1:34:32:3c:e0:a0:70:
         9b:02:90:56:12:93:5b:07:fa:96:81:b4:0f:d2:f2:0a:37:47:
         ce:04:85:ae:2e:bf:a4:72:94:79:12:b0:c8:f7:e9:ea:95:5d:
         41:f7:7c:ab:6a:de:6b:aa:c1:86:17:e6:98:ee:b4:b3:d7:bd:
         04:e2
-----BEGIN CERTIFICATE-----
MIIEKDCCA5GgAwIBAgIBATANBgkqhkiG9w0BAQUFADCBnzELMAkGA1UEBhMCQ0gx
ETAPBgNVBAgTCER1Y2twb25kMQ0wCwYDVQQHEwRQb25kMRMwEQYDVQQKEwpkdWNr
c291cmNlMRMwEQYDVQQLEwpkdWNrc291cmNlMQ8wDQYDVQQDEwZEdWNrQ0ExEDAO
BgNVBCkTB0R1Y2tLZXkxITAfBgkqhkiG9w0BCQEWEnN5c3RlbUBkdWNrcG9uZC5j
aDAeFw0xMjA5MTYyMTUxMTlaFw0yMjA5MTQyMTUxMTlaMIGfMQswCQYDVQQGEwJD
SDERMA8GA1UECBMIRHVja3BvbmQxDTALBgNVBAcTBFBvbmQxEzARBgNVBAoTCmR1
Y2tzb3VyY2UxEzARBgNVBAsTCmR1Y2tzb3VyY2UxDzANBgNVBAMTBnNlcnZlcjEQ
MA4GA1UEKRMHRHVja0tleTEhMB8GCSqGSIb3DQEJARYSc3lzdGVtQGR1Y2twb25k
LmNoMIGfMA0GCSqGSIb3DQEBAQUAA4GNADCBiQKBgQCYv43WXzGsBI75nUo3qWvB
qCVvBgRfMaS7SdsaFkZWnCwk33aDSIFri2aFhg7hHRFWsuqXDobFJef1zsB0j6e3
kjM+ld+ttpcou3+I5/qCIKHC7RJ5FaNSMZElLUuR83JCuHqi0HFNYU1XNuc0R2ZT
yzMiEiya8zqV9npnDpPfowIDAQABo4IBcDCCAWwwCQYDVR0TBAIwADARBglghkgB
hvhCAQEEBAMCBkAwNAYJYIZIAYb4QgENBCcWJUVhc3ktUlNBIEdlbmVyYXRlZCBT
ZXJ2ZXIgQ2VydGlmaWNhdGUwHQYDVR0OBBYEFDq1+xw+PtozsHoGkGO5mnoM8g7u
MIHUBgNVHSMEgcwwgcmAFMbR3+nmmrRchza427Zoiaygtd7DoYGlpIGiMIGfMQsw
CQYDVQQGEwJDSDERMA8GA1UECBMIRHVja3BvbmQxDTALBgNVBAcTBFBvbmQxEzAR
BgNVBAoTCmR1Y2tzb3VyY2UxEzARBgNVBAsTCmR1Y2tzb3VyY2UxDzANBgNVBAMT
BkR1Y2tDQTEQMA4GA1UEKRMHRHVja0tleTEhMB8GCSqGSIb3DQEJARYSc3lzdGVt
QGR1Y2twb25kLmNoggkA/O+vYbMKz5UwEwYDVR0lBAwwCgYIKwYBBQUHAwEwCwYD
VR0PBAQDAgWgMA0GCSqGSIb3DQEBBQUAA4GBAC2goMOwQ39UR3hTnvAHFRBO9BqU
5m+5/leBbcMMbUUV1DtI9GCNm9yiAYgGFdecNakDRiUwNiVnJmuK4WLFVGlw4TQy
POCgcJsCkFYSk1sH+paBtA/S8go3R84Eha4uv6RylHkSsMj36eqVXUH3fKtq3muq
wYYX5pjutLPXvQTi
-----END CERTIFICATE-----
